(dp0
I1
(dp1
S'chest_closed'
p2
I01
ssI2
(dp3
g2
I00
ssS'__PARTIES_LOCAL_STATE'
p4
(lp5
((I1
(lp6
S'Andy'
p7
ag7
tp8
Ntp9
asS'__CHARACTERS_LOCAL_STATE'
p10
(dp11
S'Andy'
p12
(g12
Ntp13
ssS'__PARTY_POSITION_LOCAL_STATE'
p14
(I1
ccopy_reg
_reconstructor
p15
(clibrpg.util
Position
p16
c__builtin__
object
p17
Ntp18
Rp19
(dp20
S'y'
p21
I6
sS'x'
p22
I6
sbI3
tp23
s.